target datalayout = "e-m:e-p270:32:32-p271:32:32-p272:64:64-i64:64-i128:128-f80:128-n8:16:32:64-S128"
target triple = "x86_64-pc-linux-gnu"

%"class.std::basic_string_view" = type { i64, ptr }

@.str = private unnamed_addr constant [5 x i8] c"ares\00", align 1

; Function Attrs: noinline noreturn nounwind uwtable
define linkonce_odr hidden void @__clang_call_terminate(ptr noundef %0) #11 comdat {
  %2 = call ptr @__cxa_begin_catch(ptr %0) #3
  call void @_ZSt9terminatev() #32
  unreachable
}

; Function Attrs: mustprogress nounwind uwtable
define linkonce_odr noundef i64 @_ZNSt11char_traitsIcE6lengthEPKc(ptr noundef %0) #4 comdat align 2 {
  %2 = alloca ptr, align 8
  store ptr %0, ptr %2, align 8, !tbaa !8
  %3 = load ptr, ptr %2, align 8, !tbaa !8
  %4 = call i64 @strlen(ptr noundef %3) #3
  ret i64 %4
}

; Function Attrs: mustprogress nounwind uwtable
define linkonce_odr void @_ZNSt17basic_string_viewIcSt11char_traitsIcEEC2EPKc(ptr noundef nonnull align 8 dereferenceable(16) %0, ptr noundef nonnull %1) unnamed_addr #4 comdat align 2 personality ptr @__gxx_personality_v0 {
  %3 = alloca ptr, align 8
  %4 = alloca ptr, align 8
  store ptr %0, ptr %3, align 8, !tbaa !11
  store ptr %1, ptr %4, align 8, !tbaa !8
  %5 = load ptr, ptr %3, align 8
  %6 = getelementptr inbounds nuw %"class.std::basic_string_view", ptr %5, i32 0, i32 0
  %7 = load ptr, ptr %4, align 8, !tbaa !8
  %8 = invoke noundef i64 @_ZNSt11char_traitsIcE6lengthEPKc(ptr noundef %7)
          to label %9 unwind label %12

9:                                                ; preds = %2
  store i64 %8, ptr %6, align 8, !tbaa !13
  %10 = getelementptr inbounds nuw %"class.std::basic_string_view", ptr %5, i32 0, i32 1
  %11 = load ptr, ptr %4, align 8, !tbaa !8
  store ptr %11, ptr %10, align 8, !tbaa !15
  ret void

12:                                               ; preds = %2
  %13 = landingpad { ptr, i32 }
          catch ptr null
  %14 = extractvalue { ptr, i32 } %13, 0
  call void @__clang_call_terminate(ptr %14) #32
  unreachable
}

; Function Attrs: mustprogress nounwind uwtable
define linkonce_odr noundef zeroext i1 @_ZNKSt17basic_string_viewIcSt11char_traitsIcEE5emptyEv(ptr noundef nonnull align 8 dereferenceable(16) %0) #4 comdat align 2 {
  %2 = alloca ptr, align 8
  store ptr %0, ptr %2, align 8, !tbaa !11
  %3 = load ptr, ptr %2, align 8
  %4 = getelementptr inbounds nuw %"class.std::basic_string_view", ptr %3, i32 0, i32 0
  %5 = load i64, ptr %4, align 8, !tbaa !13
  %6 = icmp eq i64 %5, 0
  ret i1 %6
}

; Function Attrs: mustprogress nounwind uwtable
define noundef zeroext i1 @_ZN9grpc_core24ShouldUseAresDnsResolverESt17basic_string_viewIcSt11char_traitsIcEE(i64 %0, ptr %1) #4 {
  %3 = alloca %"class.std::basic_string_view", align 8
  %4 = alloca %"class.std::basic_string_view", align 8
  %5 = alloca %"class.std::basic_string_view", align 8
  %6 = getelementptr inbounds nuw { i64, ptr }, ptr %3, i32 0, i32 0
  store i64 %0, ptr %6, align 8
  %7 = getelementptr inbounds nuw { i64, ptr }, ptr %3, i32 0, i32 1
  store ptr %1, ptr %7, align 8
  %8 = call noundef zeroext i1 @_ZNKSt17basic_string_viewIcSt11char_traitsIcEE5emptyEv(ptr noundef nonnull align 8 dereferenceable(16) %3) #3
  br i1 %8, label %19, label %9

9:                                                ; preds = %2
  call void @llvm.memcpy.p0.p0.i64(ptr align 8 %4, ptr align 8 %3, i64 16, i1 false), !tbaa.struct !3
  call void @_ZNSt17basic_string_viewIcSt11char_traitsIcEEC2EPKc(ptr noundef nonnull align 8 dereferenceable(16) %5, ptr noundef @.str) #3
  %10 = getelementptr inbounds nuw { i64, ptr }, ptr %4, i32 0, i32 0
  %11 = load i64, ptr %10, align 8
  %12 = getelementptr inbounds nuw { i64, ptr }, ptr %4, i32 0, i32 1
  %13 = load ptr, ptr %12, align 8
  %14 = getelementptr inbounds nuw { i64, ptr }, ptr %5, i32 0, i32 0
  %15 = load i64, ptr %14, align 8
  %16 = getelementptr inbounds nuw { i64, ptr }, ptr %5, i32 0, i32 1
  %17 = load ptr, ptr %16, align 8
  %18 = call noundef zeroext i1 @_ZN4absl12lts_2024072216EqualsIgnoreCaseESt17basic_string_viewIcSt11char_traitsIcEES4_(i64 %11, ptr %13, i64 %15, ptr %17) #3
  br label %19

19:                                               ; preds = %9, %2
  %20 = phi i1 [ true, %2 ], [ %18, %9 ]
  ret i1 %20
}