; Function Attrs: mustprogress nounwind uwtable
define noundef zeroext i1 @_ZN9grpc_core24ShouldUseAresDnsResolverESt17basic_string_viewIcSt11char_traitsIcEE(i64 %0, ptr %1) local_unnamed_addr #3 personality ptr @__gxx_personality_v0 {
  %3 = icmp eq i64 %0, 0
  br i1 %3, label %6, label %4

4:                                                ; preds = %2
  %5 = tail call noundef zeroext i1 @_ZN4absl12lts_2024072216EqualsIgnoreCaseESt17basic_string_viewIcSt11char_traitsIcEES4_(i64 %0, ptr %1, i64 4, ptr nonnull @.str) #34
  br label %6

6:                                                ; preds = %4, %2
  %7 = phi i1 [ true, %2 ], [ %5, %4 ]
  ret i1 %7
}